target datalayout = "e-m:e-p270:32:32-p271:32:32-p272:64:64-i64:64-i128:128-f80:128-n8:16:32:64-S128"
target triple = "x86_64-pc-linux-gnu"

%"struct.llvm::detail::PunnedPointer.5" = type { [8 x i8] }
%"class.clang::SourceLocation" = type { i32 }
%"class.clang::Decl.base" = type <{ ptr, %"class.llvm::PointerIntPair", %"class.llvm::PointerUnion", %"class.clang::SourceLocation", i32, i8 }>
%"class.llvm::PointerIntPair" = type { %"struct.llvm::detail::PunnedPointer" }
%"struct.llvm::detail::PunnedPointer" = type { [8 x i8] }
%"class.llvm::PointerUnion" = type { %"class.llvm::pointer_union_detail::PointerUnionMembers" }
%"class.llvm::pointer_union_detail::PointerUnionMembers" = type { %"class.llvm::pointer_union_detail::PointerUnionMembers.2" }
%"class.llvm::pointer_union_detail::PointerUnionMembers.2" = type { %"class.llvm::pointer_union_detail::PointerUnionMembers.3" }
%"class.llvm::pointer_union_detail::PointerUnionMembers.3" = type { %"class.llvm::PointerIntPair.4" }
%"class.llvm::PointerIntPair.4" = type { %"struct.llvm::detail::PunnedPointer.5" }
%"class.clang::Decl" = type <{ ptr, %"class.llvm::PointerIntPair", %"class.llvm::PointerUnion", %"class.clang::SourceLocation", i32, i8, [7 x i8] }>
%"class.clang::GlobalDeclID" = type { %"class.clang::DeclIDBase" }
%"class.clang::DeclIDBase" = type { i64 }
%"class.llvm::PointerUnion.545" = type { %"class.llvm::pointer_union_detail::PointerUnionMembers.546" }
%"class.llvm::pointer_union_detail::PointerUnionMembers.546" = type { %"class.llvm::pointer_union_detail::PointerUnionMembers.547" }
%"class.llvm::pointer_union_detail::PointerUnionMembers.547" = type { %"class.llvm::pointer_union_detail::PointerUnionMembers.548" }
%"class.llvm::pointer_union_detail::PointerUnionMembers.548" = type { %"class.llvm::PointerIntPair.549" }
%"class.llvm::PointerIntPair.549" = type { %"struct.llvm::detail::PunnedPointer.5" }
%"class.clang::FriendTemplateDecl" = type <{ %"class.clang::Decl.base", [3 x i8], i32, ptr, %"class.llvm::PointerUnion.545", %"class.clang::SourceLocation", [4 x i8] }>

@_ZTVN5clang4DeclE = external unnamed_addr constant { [12 x ptr] }, align 8
@_ZN5clang4Decl17StatisticsEnabledE = external global i8, align 1

; Function Attrs: mustprogress nounwind uwtable
define linkonce_odr hidden noundef nonnull align 8 dereferenceable(8) ptr @_ZN4llvm6detail13PunnedPointerIPvEaSEl(ptr noundef nonnull align 8 dereferenceable(8) %0, i64 noundef %1) #0 comdat align 2 {
  %3 = alloca ptr, align 8
  %4 = alloca i64, align 8
  store ptr %0, ptr %3, align 8
  store i64 %1, ptr %4, align 8
  %5 = load ptr, ptr %3, align 8
  %6 = getelementptr inbounds nuw %"struct.llvm::detail::PunnedPointer.5", ptr %5, i32 0, i32 0
  %7 = getelementptr inbounds [8 x i8], ptr %6, i64 0, i64 0
  call void @llvm.memcpy.p0.p0.i64(ptr align 8 %7, ptr align 8 %4, i64 8, i1 false)
  ret ptr %5
}

; Function Attrs: mustprogress nounwind uwtable
define linkonce_odr hidden void @_ZN4llvm6detail13PunnedPointerIPvEC2El(ptr noundef nonnull align 8 dereferenceable(8) %0, i64 noundef %1) unnamed_addr #0 comdat align 2 {
  %3 = alloca ptr, align 8
  %4 = alloca i64, align 8
  store ptr %0, ptr %3, align 8
  store i64 %1, ptr %4, align 8
  %5 = load ptr, ptr %3, align 8
  %6 = load i64, ptr %4, align 8
  %7 = call noundef nonnull align 8 dereferenceable(8) ptr @_ZN4llvm6detail13PunnedPointerIPvEaSEl(ptr noundef nonnull align 8 dereferenceable(8) %5, i64 noundef %6)
  ret void
}

; Function Attrs: mustprogress nounwind uwtable
define linkonce_odr hidden void @_ZN4llvm14PointerIntPairIPvLj1EiNS_20pointer_union_detail22PointerUnionUIntTraitsIJPN5clang11DeclContextEPNS4_4Decl10MultipleDCEEEENS_18PointerIntPairInfoIS1_Lj1ESA_EEEC2Ev(ptr noundef nonnull align 8 dereferenceable(8) %0) unnamed_addr #0 comdat align 2 {
  %2 = alloca ptr, align 8
  store ptr %0, ptr %2, align 8
  %3 = load ptr, ptr %2, align 8
  %4 = getelementptr inbounds nuw %"class.llvm::PointerIntPair.4", ptr %3, i32 0, i32 0
  call void @_ZN4llvm6detail13PunnedPointerIPvEC2El(ptr noundef nonnull align 8 dereferenceable(8) %4, i64 noundef 0)
  ret void
}

; Function Attrs: mustprogress nounwind uwtable
define linkonce_odr hidden void @_ZN4llvm14PointerIntPairIPvLj1EiNS_20pointer_union_detail22PointerUnionUIntTraitsIJPN5clang9NamedDeclEPNS4_14TypeSourceInfoEEEENS_18PointerIntPairInfoIS1_Lj1ES9_EEEC2Ev(ptr noundef nonnull align 8 dereferenceable(8) %0) unnamed_addr #0 comdat align 2 {
  %2 = alloca ptr, align 8
  store ptr %0, ptr %2, align 8
  %3 = load ptr, ptr %2, align 8
  %4 = getelementptr inbounds nuw %"class.llvm::PointerIntPair.549", ptr %3, i32 0, i32 0
  call void @_ZN4llvm6detail13PunnedPointerIPvEC2El(ptr noundef nonnull align 8 dereferenceable(8) %4, i64 noundef 0)
  ret void
}

; Function Attrs: mustprogress nounwind uwtable
define linkonce_odr hidden void @_ZN4llvm20pointer_union_detail19PointerUnionMembersINS_12PointerUnionIJPN5clang11DeclContextEPNS3_4Decl10MultipleDCEEEENS_14PointerIntPairIPvLj1EiNS0_22PointerUnionUIntTraitsIJS5_S8_EEENS_18PointerIntPairInfoISB_Lj1ESD_EEEELi2EJEEC2Ev(ptr noundef nonnull align 8 dereferenceable(8) %0) unnamed_addr #0 comdat align 2 {
  %2 = alloca ptr, align 8
  store ptr %0, ptr %2, align 8
  %3 = load ptr, ptr %2, align 8
  %4 = getelementptr inbounds nuw %"class.llvm::pointer_union_detail::PointerUnionMembers.3", ptr %3, i32 0, i32 0
  call void @_ZN4llvm14PointerIntPairIPvLj1EiNS_20pointer_union_detail22PointerUnionUIntTraitsIJPN5clang11DeclContextEPNS4_4Decl10MultipleDCEEEENS_18PointerIntPairInfoIS1_Lj1ESA_EEEC2Ev(ptr noundef nonnull align 8 dereferenceable(8) %4)
  ret void
}

; Function Attrs: mustprogress nounwind uwtable
define linkonce_odr hidden void @_ZN4llvm20pointer_union_detail19PointerUnionMembersINS_12PointerUnionIJPN5clang9NamedDeclEPNS3_14TypeSourceInfoEEEENS_14PointerIntPairIPvLj1EiNS0_22PointerUnionUIntTraitsIJS5_S7_EEENS_18PointerIntPairInfoISA_Lj1ESC_EEEELi2EJEEC2Ev(ptr noundef nonnull align 8 dereferenceable(8) %0) unnamed_addr #0 comdat align 2 {
  %2 = alloca ptr, align 8
  store ptr %0, ptr %2, align 8
  %3 = load ptr, ptr %2, align 8
  %4 = getelementptr inbounds nuw %"class.llvm::pointer_union_detail::PointerUnionMembers.548", ptr %3, i32 0, i32 0
  call void @_ZN4llvm14PointerIntPairIPvLj1EiNS_20pointer_union_detail22PointerUnionUIntTraitsIJPN5clang9NamedDeclEPNS4_14TypeSourceInfoEEEENS_18PointerIntPairInfoIS1_Lj1ES9_EEEC2Ev(ptr noundef nonnull align 8 dereferenceable(8) %4)
  ret void
}

; Function Attrs: mustprogress nounwind uwtable
define linkonce_odr hidden void @_ZN4llvm20pointer_union_detail19PointerUnionMembersINS_12PointerUnionIJPN5clang11DeclContextEPNS3_4Decl10MultipleDCEEEENS_14PointerIntPairIPvLj1EiNS0_22PointerUnionUIntTraitsIJS5_S8_EEENS_18PointerIntPairInfoISB_Lj1ESD_EEEELi1EJS8_EEC2Ev(ptr noundef nonnull align 8 dereferenceable(8) %0) unnamed_addr #0 comdat align 2 {
  %2 = alloca ptr, align 8
  store ptr %0, ptr %2, align 8
  %3 = load ptr, ptr %2, align 8
  call void @_ZN4llvm20pointer_union_detail19PointerUnionMembersINS_12PointerUnionIJPN5clang11DeclContextEPNS3_4Decl10MultipleDCEEEENS_14PointerIntPairIPvLj1EiNS0_22PointerUnionUIntTraitsIJS5_S8_EEENS_18PointerIntPairInfoISB_Lj1ESD_EEEELi2EJEEC2Ev(ptr noundef nonnull align 8 dereferenceable(8) %3)
  ret void
}

; Function Attrs: mustprogress nounwind uwtable
define linkonce_odr hidden noundef nonnull align 8 dereferenceable(8) ptr @_ZN4llvm6detail13PunnedPointerIPN5clang4DeclEEaSEl(ptr noundef nonnull align 8 dereferenceable(8) %0, i64 noundef %1) #0 comdat align 2 {
  %3 = alloca ptr, align 8
  %4 = alloca i64, align 8
  store ptr %0, ptr %3, align 8
  store i64 %1, ptr %4, align 8
  %5 = load ptr, ptr %3, align 8
  %6 = getelementptr inbounds nuw %"struct.llvm::detail::PunnedPointer", ptr %5, i32 0, i32 0
  %7 = getelementptr inbounds [8 x i8], ptr %6, i64 0, i64 0
  call void @llvm.memcpy.p0.p0.i64(ptr align 8 %7, ptr align 8 %4, i64 8, i1 false)
  ret ptr %5
}

; Function Attrs: mustprogress nounwind uwtable
define linkonce_odr hidden void @_ZN4llvm20pointer_union_detail19PointerUnionMembersINS_12PointerUnionIJPN5clang9NamedDeclEPNS3_14TypeSourceInfoEEEENS_14PointerIntPairIPvLj1EiNS0_22PointerUnionUIntTraitsIJS5_S7_EEENS_18PointerIntPairInfoISA_Lj1ESC_EEEELi1EJS7_EEC2Ev(ptr noundef nonnull align 8 dereferenceable(8) %0) unnamed_addr #0 comdat align 2 {
  %2 = alloca ptr, align 8
  store ptr %0, ptr %2, align 8
  %3 = load ptr, ptr %2, align 8
  call void @_ZN4llvm20pointer_union_detail19PointerUnionMembersINS_12PointerUnionIJPN5clang9NamedDeclEPNS3_14TypeSourceInfoEEEENS_14PointerIntPairIPvLj1EiNS0_22PointerUnionUIntTraitsIJS5_S7_EEENS_18PointerIntPairInfoISA_Lj1ESC_EEEELi2EJEEC2Ev(ptr noundef nonnull align 8 dereferenceable(8) %3)
  ret void
}

; Function Attrs: mustprogress nounwind uwtable
define linkonce_odr hidden void @_ZN4llvm20pointer_union_detail19PointerUnionMembersINS_12PointerUnionIJPN5clang11DeclContextEPNS3_4Decl10MultipleDCEEEENS_14PointerIntPairIPvLj1EiNS0_22PointerUnionUIntTraitsIJS5_S8_EEENS_18PointerIntPairInfoISB_Lj1ESD_EEEELi0EJS5_S8_EEC2Ev(ptr noundef nonnull align 8 dereferenceable(8) %0) unnamed_addr #0 comdat align 2 {
  %2 = alloca ptr, align 8
  store ptr %0, ptr %2, align 8
  %3 = load ptr, ptr %2, align 8
  call void @_ZN4llvm20pointer_union_detail19PointerUnionMembersINS_12PointerUnionIJPN5clang11DeclContextEPNS3_4Decl10MultipleDCEEEENS_14PointerIntPairIPvLj1EiNS0_22PointerUnionUIntTraitsIJS5_S8_EEENS_18PointerIntPairInfoISB_Lj1ESD_EEEELi1EJS8_EEC2Ev(ptr noundef nonnull align 8 dereferenceable(8) %3)
  ret void
}

; Function Attrs: mustprogress nounwind uwtable
define linkonce_odr hidden void @_ZN4llvm6detail13PunnedPointerIPN5clang4DeclEEC2El(ptr noundef nonnull align 8 dereferenceable(8) %0, i64 noundef %1) unnamed_addr #0 comdat align 2 {
  %3 = alloca ptr, align 8
  %4 = alloca i64, align 8
  store ptr %0, ptr %3, align 8
  store i64 %1, ptr %4, align 8
  %5 = load ptr, ptr %3, align 8
  %6 = load i64, ptr %4, align 8
  %7 = call noundef nonnull align 8 dereferenceable(8) ptr @_ZN4llvm6detail13PunnedPointerIPN5clang4DeclEEaSEl(ptr noundef nonnull align 8 dereferenceable(8) %5, i64 noundef %6)
  ret void
}

; Function Attrs: mustprogress nounwind uwtable
define linkonce_odr hidden void @_ZN4llvm20pointer_union_detail19PointerUnionMembersINS_12PointerUnionIJPN5clang9NamedDeclEPNS3_14TypeSourceInfoEEEENS_14PointerIntPairIPvLj1EiNS0_22PointerUnionUIntTraitsIJS5_S7_EEENS_18PointerIntPairInfoISA_Lj1ESC_EEEELi0EJS5_S7_EEC2Ev(ptr noundef nonnull align 8 dereferenceable(8) %0) unnamed_addr #0 comdat align 2 {
  %2 = alloca ptr, align 8
  store ptr %0, ptr %2, align 8
  %3 = load ptr, ptr %2, align 8
  call void @_ZN4llvm20pointer_union_detail19PointerUnionMembersINS_12PointerUnionIJPN5clang9NamedDeclEPNS3_14TypeSourceInfoEEEENS_14PointerIntPairIPvLj1EiNS0_22PointerUnionUIntTraitsIJS5_S7_EEENS_18PointerIntPairInfoISA_Lj1ESC_EEEELi1EJS7_EEC2Ev(ptr noundef nonnull align 8 dereferenceable(8) %3)
  ret void
}

; Function Attrs: mustprogress nounwind uwtable
define linkonce_odr hidden noundef zeroext i8 @_ZN4llvm13to_underlyingIN5clang7LinkageEEENSt15underlying_typeIT_E4typeES4_(i8 noundef zeroext %0) #0 comdat {
  %2 = alloca i8, align 1
  store i8 %0, ptr %2, align 1
  %3 = load i8, ptr %2, align 1
  ret i8 %3
}

; Function Attrs: mustprogress nounwind uwtable
define linkonce_odr hidden void @_ZN4llvm12PointerUnionIJPN5clang11DeclContextEPNS1_4Decl10MultipleDCEEEC2Ev(ptr noundef nonnull align 8 dereferenceable(8) %0) unnamed_addr #0 comdat align 2 {
  %2 = alloca ptr, align 8
  store ptr %0, ptr %2, align 8
  %3 = load ptr, ptr %2, align 8
  call void @_ZN4llvm20pointer_union_detail19PointerUnionMembersINS_12PointerUnionIJPN5clang11DeclContextEPNS3_4Decl10MultipleDCEEEENS_14PointerIntPairIPvLj1EiNS0_22PointerUnionUIntTraitsIJS5_S8_EEENS_18PointerIntPairInfoISB_Lj1ESD_EEEELi0EJS5_S8_EEC2Ev(ptr noundef nonnull align 8 dereferenceable(8) %3)
  ret void
}

; Function Attrs: mustprogress nounwind uwtable
define linkonce_odr hidden void @_ZN4llvm14PointerIntPairIPN5clang4DeclELj3ENS2_19ModuleOwnershipKindENS_21PointerLikeTypeTraitsIS3_EENS_18PointerIntPairInfoIS3_Lj3ES6_EEEC2Ev(ptr noundef nonnull align 8 dereferenceable(8) %0) unnamed_addr #0 comdat align 2 {
  %2 = alloca ptr, align 8
  store ptr %0, ptr %2, align 8
  %3 = load ptr, ptr %2, align 8
  %4 = getelementptr inbounds nuw %"class.llvm::PointerIntPair", ptr %3, i32 0, i32 0
  call void @_ZN4llvm6detail13PunnedPointerIPN5clang4DeclEEC2El(ptr noundef nonnull align 8 dereferenceable(8) %4, i64 noundef 0)
  ret void
}

; Function Attrs: mustprogress nounwind uwtable
define linkonce_odr hidden void @_ZN5clang14SourceLocationC2Ev(ptr noundef nonnull align 4 dereferenceable(4) %0) unnamed_addr #0 comdat align 2 {
  %2 = alloca ptr, align 8
  store ptr %0, ptr %2, align 8
  %3 = load ptr, ptr %2, align 8
  %4 = getelementptr inbounds nuw %"class.clang::SourceLocation", ptr %3, i32 0, i32 0
  store i32 0, ptr %4, align 4
  ret void
}

; Function Attrs: mustprogress nounwind uwtable
define linkonce_odr hidden void @_ZN4llvm12PointerUnionIJPN5clang9NamedDeclEPNS1_14TypeSourceInfoEEEC2Ev(ptr noundef nonnull align 8 dereferenceable(8) %0) unnamed_addr #0 comdat align 2 {
  %2 = alloca ptr, align 8
  store ptr %0, ptr %2, align 8
  %3 = load ptr, ptr %2, align 8
  call void @_ZN4llvm20pointer_union_detail19PointerUnionMembersINS_12PointerUnionIJPN5clang9NamedDeclEPNS3_14TypeSourceInfoEEEENS_14PointerIntPairIPvLj1EiNS0_22PointerUnionUIntTraitsIJS5_S7_EEENS_18PointerIntPairInfoISA_Lj1ESC_EEEELi0EJS5_S7_EEC2Ev(ptr noundef nonnull align 8 dereferenceable(8) %3)
  ret void
}

; Function Attrs: mustprogress nounwind uwtable
define linkonce_odr hidden void @_ZN5clang4DeclC2ENS0_4KindENS0_10EmptyShellE(ptr noundef nonnull align 8 dereferenceable(33) %0, i32 noundef %1) unnamed_addr #0 comdat align 2 {
  %3 = alloca ptr, align 8
  %4 = alloca i32, align 4
  store ptr %0, ptr %3, align 8
  store i32 %1, ptr %4, align 4
  %5 = load ptr, ptr %3, align 8
  store ptr getelementptr inbounds inrange(-16, 80) ({ [12 x ptr] }, ptr @_ZTVN5clang4DeclE, i32 0, i32 0, i32 2), ptr %5, align 8
  %6 = getelementptr inbounds nuw %"class.clang::Decl", ptr %5, i32 0, i32 1
  call void @_ZN4llvm14PointerIntPairIPN5clang4DeclELj3ENS2_19ModuleOwnershipKindENS_21PointerLikeTypeTraitsIS3_EENS_18PointerIntPairInfoIS3_Lj3ES6_EEEC2Ev(ptr noundef nonnull align 8 dereferenceable(8) %6)
  %7 = getelementptr inbounds nuw %"class.clang::Decl", ptr %5, i32 0, i32 2
  call void @_ZN4llvm12PointerUnionIJPN5clang11DeclContextEPNS1_4Decl10MultipleDCEEEC2Ev(ptr noundef nonnull align 8 dereferenceable(8) %7)
  %8 = getelementptr inbounds nuw %"class.clang::Decl", ptr %5, i32 0, i32 3
  call void @_ZN5clang14SourceLocationC2Ev(ptr noundef nonnull align 4 dereferenceable(4) %8) #7
  %9 = getelementptr inbounds nuw %"class.clang::Decl", ptr %5, i32 0, i32 4
  %10 = load i32, ptr %4, align 4
  %11 = load i32, ptr %9, align 4
  %12 = and i32 %10, 127
  %13 = and i32 %11, -128
  %14 = or i32 %13, %12
  store i32 %14, ptr %9, align 4
  %15 = getelementptr inbounds nuw %"class.clang::Decl", ptr %5, i32 0, i32 4
  %16 = load i32, ptr %15, align 4
  %17 = and i32 %16, -129
  %18 = or i32 %17, 0
  store i32 %18, ptr %15, align 4
  %19 = getelementptr inbounds nuw %"class.clang::Decl", ptr %5, i32 0, i32 4
  %20 = load i32, ptr %19, align 4
  %21 = and i32 %20, -257
  %22 = or i32 %21, 0
  store i32 %22, ptr %19, align 4
  %23 = getelementptr inbounds nuw %"class.clang::Decl", ptr %5, i32 0, i32 4
  %24 = load i32, ptr %23, align 4
  %25 = and i32 %24, -513
  %26 = or i32 %25, 0
  store i32 %26, ptr %23, align 4
  %27 = getelementptr inbounds nuw %"class.clang::Decl", ptr %5, i32 0, i32 4
  %28 = load i32, ptr %27, align 4
  %29 = and i32 %28, -1025
  %30 = or i32 %29, 0
  store i32 %30, ptr %27, align 4
  %31 = getelementptr inbounds nuw %"class.clang::Decl", ptr %5, i32 0, i32 4
  %32 = load i32, ptr %31, align 4
  %33 = and i32 %32, -2049
  %34 = or i32 %33, 0
  store i32 %34, ptr %31, align 4
  %35 = getelementptr inbounds nuw %"class.clang::Decl", ptr %5, i32 0, i32 4
  %36 = load i32, ptr %35, align 4
  %37 = and i32 %36, -4097
  %38 = or i32 %37, 0
  store i32 %38, ptr %35, align 4
  %39 = getelementptr inbounds nuw %"class.clang::Decl", ptr %5, i32 0, i32 4
  %40 = load i32, ptr %39, align 4
  %41 = and i32 %40, -24577
  %42 = or i32 %41, 24576
  store i32 %42, ptr %39, align 4
  %43 = getelementptr inbounds nuw %"class.clang::Decl", ptr %5, i32 0, i32 4
  %44 = load i32, ptr %43, align 4
  %45 = and i32 %44, -32769
  %46 = or i32 %45, 0
  store i32 %46, ptr %43, align 4
  %47 = getelementptr inbounds nuw %"class.clang::Decl", ptr %5, i32 0, i32 4
  %48 = load i32, ptr %4, align 4
  %49 = call noundef i32 @_ZN5clang4Decl29getIdentifierNamespaceForKindENS0_4KindE(i32 noundef %48)
  %50 = load i32, ptr %47, align 4
  %51 = and i32 %49, 16383
  %52 = shl i32 %51, 16
  %53 = and i32 %50, -1073676289
  %54 = or i32 %53, %52
  store i32 %54, ptr %47, align 4
  %55 = getelementptr inbounds nuw %"class.clang::Decl", ptr %5, i32 0, i32 5
  %56 = call noundef zeroext i8 @_ZN4llvm13to_underlyingIN5clang7LinkageEEENSt15underlying_typeIT_E4typeES4_(i8 noundef zeroext 0)
  %57 = zext i8 %56 to i32
  %58 = trunc i32 %57 to i8
  %59 = load i8, ptr %55, align 8
  %60 = and i8 %58, 7
  %61 = and i8 %59, -8
  %62 = or i8 %61, %60
  store i8 %62, ptr %55, align 8
  %63 = load i8, ptr @_ZN5clang4Decl17StatisticsEnabledE, align 1
  %64 = trunc i8 %63 to i1
  br i1 %64, label %65, label %67

65:                                               ; preds = %2
  %66 = load i32, ptr %4, align 4
  call void @_ZN5clang4Decl3addENS0_4KindE(i32 noundef %66)
  br label %67

67:                                               ; preds = %65, %2
  ret void
}

; Function Attrs: mustprogress nounwind uwtable
define linkonce_odr hidden void @_ZN5clang18FriendTemplateDeclC2ENS_4Decl10EmptyShellE(ptr noundef nonnull align 8 dereferenceable(60) %0) unnamed_addr #0 comdat align 2 {
  %2 = alloca ptr, align 8
  store ptr %0, ptr %2, align 8
  %3 = load ptr, ptr %2, align 8
  call void @_ZN5clang4DeclC2ENS0_4KindENS0_10EmptyShellE(ptr noundef nonnull align 8 dereferenceable(33) %3, i32 noundef 81)
  store ptr getelementptr inbounds inrange(-16, 88) ({ [13 x ptr] }, ptr @_ZTVN5clang18FriendTemplateDeclE, i32 0, i32 0, i32 2), ptr %3, align 8
  %4 = getelementptr inbounds nuw %"class.clang::FriendTemplateDecl", ptr %3, i32 0, i32 2
  store i32 0, ptr %4, align 4
  %5 = getelementptr inbounds nuw %"class.clang::FriendTemplateDecl", ptr %3, i32 0, i32 3
  store ptr null, ptr %5, align 8
  %6 = getelementptr inbounds nuw %"class.clang::FriendTemplateDecl", ptr %3, i32 0, i32 4
  call void @_ZN4llvm12PointerUnionIJPN5clang9NamedDeclEPNS1_14TypeSourceInfoEEEC2Ev(ptr noundef nonnull align 8 dereferenceable(8) %6)
  %7 = getelementptr inbounds nuw %"class.clang::FriendTemplateDecl", ptr %3, i32 0, i32 5
  call void @_ZN5clang14SourceLocationC2Ev(ptr noundef nonnull align 4 dereferenceable(4) %7) #7
  ret void
}

; Function Attrs: mustprogress nounwind uwtable
define dso_local noundef ptr @_ZN5clang18FriendTemplateDecl18CreateDeserializedERNS_10ASTContextENS_12GlobalDeclIDE(ptr noundef nonnull align 8 dereferenceable(23096) %0, i64 %1) #0 align 2 {
  %3 = alloca %"class.clang::GlobalDeclID", align 8
  %4 = alloca ptr, align 8
  %5 = alloca %"class.clang::GlobalDeclID", align 8
  %6 = getelementptr inbounds nuw %"class.clang::GlobalDeclID", ptr %3, i32 0, i32 0
  %7 = getelementptr inbounds nuw %"class.clang::DeclIDBase", ptr %6, i32 0, i32 0
  store i64 %1, ptr %7, align 8
  store ptr %0, ptr %4, align 8
  %8 = load ptr, ptr %4, align 8
  call void @llvm.memcpy.p0.p0.i64(ptr align 8 %5, ptr align 8 %3, i64 8, i1 false)
  %9 = getelementptr inbounds nuw %"class.clang::GlobalDeclID", ptr %5, i32 0, i32 0
  %10 = getelementptr inbounds nuw %"class.clang::DeclIDBase", ptr %9, i32 0, i32 0
  %11 = load i64, ptr %10, align 8
  %12 = call noundef ptr @_ZN5clang4DeclnwEmRKNS_10ASTContextENS_12GlobalDeclIDEm(i64 noundef 64, ptr noundef nonnull align 8 dereferenceable(23096) %8, i64 %11, i64 noundef 0)
  call void @_ZN5clang18FriendTemplateDeclC2ENS_4Decl10EmptyShellE(ptr noundef nonnull align 8 dereferenceable(60) %12)
  ret ptr %12
}