; Function Attrs: mustprogress nounwind uwtable
define dso_local noundef ptr @_ZN5clang18FriendTemplateDecl18CreateDeserializedERNS_10ASTContextENS_12GlobalDeclIDE(ptr noundef nonnull align 8 dereferenceable(23096) %0, i64 %1) local_unnamed_addr #0 align 2 {
  %3 = tail call noundef ptr @_ZN5clang4DeclnwEmRKNS_10ASTContextENS_12GlobalDeclIDEm(i64 noundef 64, ptr noundef nonnull align 8 dereferenceable(23096) %0, i64 %1, i64 noundef 0) #21
  store ptr getelementptr inbounds nuw inrange(-16, 80) (i8, ptr @_ZTVN5clang4DeclE, i64 16), ptr %3, align 8
  %4 = getelementptr inbounds nuw i8, ptr %3, i64 8
  %5 = getelementptr inbounds nuw i8, ptr %3, i64 28
  tail call void @llvm.memset.p0.i64(ptr noundef nonnull align 8 dereferenceable(20) %4, i8 0, i64 20, i1 false)
  %6 = load i32, ptr %5, align 4
  %7 = and i32 %6, -65536
  %8 = or disjoint i32 %7, 24657
  store i32 %8, ptr %5, align 4
  %9 = tail call noundef i32 @_ZN5clang4Decl29getIdentifierNamespaceForKindENS0_4KindE(i32 noundef 81) #21
  %10 = load i32, ptr %5, align 4
  %11 = shl i32 %9, 16
  %12 = and i32 %11, 1073676288
  %13 = and i32 %10, -1073676289
  %14 = or disjoint i32 %13, %12
  store i32 %14, ptr %5, align 4
  %15 = getelementptr inbounds nuw i8, ptr %3, i64 32
  %16 = load i8, ptr %15, align 8
  %17 = and i8 %16, -8
  store i8 %17, ptr %15, align 8
  %18 = load i8, ptr @_ZN5clang4Decl17StatisticsEnabledE, align 1
  %19 = trunc i8 %18 to i1
  br i1 %19, label %20, label %_ZN5clang18FriendTemplateDeclC2ENS_4Decl10EmptyShellE.exit

20:                                               ; preds = %2
  tail call void @_ZN5clang4Decl3addENS0_4KindE(i32 noundef 81) #21
  br label %_ZN5clang18FriendTemplateDeclC2ENS_4Decl10EmptyShellE.exit

_ZN5clang18FriendTemplateDeclC2ENS_4Decl10EmptyShellE.exit: ; preds = %2, %20
  store ptr getelementptr inbounds nuw inrange(-16, 88) (i8, ptr @_ZTVN5clang18FriendTemplateDeclE, i64 16), ptr %3, align 8
  %21 = getelementptr inbounds nuw i8, ptr %3, i64 36
  tail call void @llvm.memset.p0.i64(ptr noundef nonnull align 4 dereferenceable(24) %21, i8 0, i64 24, i1 false)
  ret ptr %3
}